target datalayout = "e-m:e-p270:32:32-p271:32:32-p272:64:64-i64:64-i128:128-f80:128-n8:16:32:64-S128"
target triple = "x86_64-pc-linux-gnu"

%"class.gmx::KeyValueTreeObjectBuilder" = type { ptr }

; Function Attrs: mustprogress uwtable
define internal void @_ZN3gmx12_GLOBAL__N_119SerializationTraitsINS_18KeyValueTreeObjectEE11deserializeEPNS_24KeyValueTreeValueBuilderEPNS_11ISerializerE(ptr noundef %0, ptr noundef %1) #4 align 2 {
  %3 = alloca ptr, align 8
  %4 = alloca ptr, align 8
  %5 = alloca %"class.gmx::KeyValueTreeObjectBuilder", align 8
  store ptr %0, ptr %3, align 8, !tbaa !98
  store ptr %1, ptr %4, align 8, !tbaa !64
  call void @llvm.lifetime.start.p0(i64 8, ptr %5) #2
  %6 = load ptr, ptr %3, align 8, !tbaa !98
  %7 = call ptr @_ZN3gmx24KeyValueTreeValueBuilder12createObjectEv(ptr noundef nonnull align 8 dereferenceable(8) %6)
  %8 = getelementptr inbounds nuw %"class.gmx::KeyValueTreeObjectBuilder", ptr %5, i32 0, i32 0
  store ptr %7, ptr %8, align 8
  %9 = load ptr, ptr %4, align 8, !tbaa !64
  call void @_ZN3gmx12_GLOBAL__N_119SerializationTraitsINS_18KeyValueTreeObjectEE17deserializeObjectEPNS_25KeyValueTreeObjectBuilderEPNS_11ISerializerE(ptr noundef %5, ptr noundef %9)
  call void @llvm.lifetime.end.p0(i64 8, ptr %5) #2
  ret void
}