; Function Attrs: mustprogress uwtable
define internal void @_ZN3gmx12_GLOBAL__N_119SerializationTraitsINS_18KeyValueTreeObjectEE11deserializeEPNS_24KeyValueTreeValueBuilderEPNS_11ISerializerE(ptr noundef nonnull %0, ptr noundef %1) #6 align 2 {
  %3 = alloca %"class.gmx::KeyValueTreeObjectBuilder", align 8
  call void @llvm.lifetime.start.p0(i64 8, ptr nonnull %3) #21
  %4 = tail call ptr @_ZN3gmx24KeyValueTreeValueBuilder12createObjectEv(ptr noundef nonnull align 8 dereferenceable(8) %0)
  store ptr %4, ptr %3, align 8
  call fastcc void @_ZN3gmx12_GLOBAL__N_119SerializationTraitsINS_18KeyValueTreeObjectEE17deserializeObjectEPNS_25KeyValueTreeObjectBuilderEPNS_11ISerializerE(ptr noundef %3, ptr noundef %1)
  call void @llvm.lifetime.end.p0(i64 8, ptr nonnull %3) #21
  ret void
}